target datalayout = "e-m:e-p270:32:32-p271:32:32-p272:64:64-i64:64-i128:128-f80:128-n8:16:32:64-S128"
target triple = "x86_64-pc-linux-gnu"

%struct._object = type { %union.anon, ptr }
%union.anon = type { i64 }
%struct.readlinestate = type { ptr, ptr, ptr, ptr, ptr, ptr }
%struct.anon = type { i32, i32 }
%struct.PyBytesObject = type { %struct.PyVarObject, i64, [1 x i8] }
%struct.PyVarObject = type { %struct._object, i64 }

@_Py_NoneStruct = external global %struct._object, align 8
@.str.34 = private unnamed_addr constant [16 x i8] c"surrogateescape\00", align 1
@rl_attempted_completion_over = external global i32, align 4
@.str.56 = private unnamed_addr constant [3 x i8] c"Ni\00", align 1

; Function Attrs: alwaysinline nounwind uwtable
define internal i32 @_Py_IsImmortal(ptr noundef %0) #4 {
  %2 = alloca ptr, align 8
  store ptr %0, ptr %2, align 8, !tbaa !19
  %3 = load ptr, ptr %2, align 8, !tbaa !19
  %4 = getelementptr inbounds nuw %struct._object, ptr %3, i32 0, i32 0
  %5 = getelementptr inbounds nuw %struct.anon, ptr %4, i32 0, i32 0
  %6 = load i32, ptr %5, align 8, !tbaa !23
  %7 = icmp slt i32 %6, 0
  %8 = zext i1 %7 to i32
  ret i32 %8
}

; Function Attrs: inlinehint nounwind uwtable
define internal ptr @get_readline_state(ptr noundef %0) #5 {
  %2 = alloca ptr, align 8
  %3 = alloca ptr, align 8
  store ptr %0, ptr %2, align 8, !tbaa !19
  call void @llvm.lifetime.start.p0(i64 8, ptr %3) #10
  %4 = load ptr, ptr %2, align 8, !tbaa !19
  %5 = call ptr @PyModule_GetState(ptr noundef %4)
  store ptr %5, ptr %3, align 8, !tbaa !20
  %6 = load ptr, ptr %3, align 8, !tbaa !20
  call void @llvm.lifetime.end.p0(i64 8, ptr %3) #10
  ret ptr %6
}

; Function Attrs: alwaysinline nounwind uwtable
define internal void @Py_INCREF(ptr noundef %0) #4 {
  %2 = alloca ptr, align 8
  %3 = alloca i32, align 4
  %4 = alloca i32, align 4
  store ptr %0, ptr %2, align 8, !tbaa !19
  call void @llvm.lifetime.start.p0(i64 4, ptr %3) #10
  %5 = load ptr, ptr %2, align 8, !tbaa !19
  %6 = getelementptr inbounds nuw %struct._object, ptr %5, i32 0, i32 0
  %7 = getelementptr inbounds nuw %struct.anon, ptr %6, i32 0, i32 0
  %8 = load i32, ptr %7, align 8, !tbaa !23
  store i32 %8, ptr %3, align 4, !tbaa !8
  %9 = load i32, ptr %3, align 4, !tbaa !8
  %10 = icmp slt i32 %9, 0
  br i1 %10, label %11, label %12

11:                                               ; preds = %1
  store i32 1, ptr %4, align 4
  br label %18

12:                                               ; preds = %1
  %13 = load i32, ptr %3, align 4, !tbaa !8
  %14 = add i32 %13, 1
  %15 = load ptr, ptr %2, align 8, !tbaa !19
  %16 = getelementptr inbounds nuw %struct._object, ptr %15, i32 0, i32 0
  %17 = getelementptr inbounds nuw %struct.anon, ptr %16, i32 0, i32 0
  store i32 %14, ptr %17, align 8, !tbaa !23
  store i32 0, ptr %4, align 4
  br label %18

18:                                               ; preds = %12, %11
  call void @llvm.lifetime.end.p0(i64 4, ptr %3) #10
  %19 = load i32, ptr %4, align 4
  switch i32 %19, label %21 [
    i32 0, label %20
    i32 1, label %20
  ]

20:                                               ; preds = %18, %18
  ret void

21:                                               ; preds = %18
  unreachable
}

; Function Attrs: inlinehint nounwind uwtable
define internal void @Py_XDECREF(ptr noundef %0) #5 {
  %2 = alloca ptr, align 8
  store ptr %0, ptr %2, align 8, !tbaa !19
  %3 = load ptr, ptr %2, align 8, !tbaa !19
  %4 = icmp ne ptr %3, null
  br i1 %4, label %5, label %7

5:                                                ; preds = %1
  %6 = load ptr, ptr %2, align 8, !tbaa !19
  call void @Py_DECREF(ptr noundef %6)
  br label %7

7:                                                ; preds = %5, %1
  ret void
}

; Function Attrs: alwaysinline nounwind uwtable
define internal void @Py_DECREF(ptr noundef %0) #4 {
  %2 = alloca ptr, align 8
  store ptr %0, ptr %2, align 8, !tbaa !19
  %3 = load ptr, ptr %2, align 8, !tbaa !19
  %4 = call i32 @_Py_IsImmortal(ptr noundef %3)
  %5 = icmp ne i32 %4, 0
  br i1 %5, label %6, label %7

6:                                                ; preds = %1
  br label %16

7:                                                ; preds = %1
  %8 = load ptr, ptr %2, align 8, !tbaa !19
  %9 = getelementptr inbounds nuw %struct._object, ptr %8, i32 0, i32 0
  %10 = getelementptr inbounds nuw %struct.anon, ptr %9, i32 0, i32 0
  %11 = load i32, ptr %10, align 8, !tbaa !23
  %12 = add i32 %11, -1
  store i32 %12, ptr %10, align 8, !tbaa !23
  %13 = icmp eq i32 %12, 0
  br i1 %13, label %14, label %16

14:                                               ; preds = %7
  %15 = load ptr, ptr %2, align 8, !tbaa !19
  call void @_Py_Dealloc(ptr noundef %15)
  br label %16

16:                                               ; preds = %6, %14, %7
  ret void
}

; Function Attrs: inlinehint nounwind uwtable
define internal ptr @PyBytes_AS_STRING(ptr noundef %0) #5 {
  %2 = alloca ptr, align 8
  store ptr %0, ptr %2, align 8, !tbaa !19
  %3 = load ptr, ptr %2, align 8, !tbaa !19
  %4 = getelementptr inbounds nuw %struct.PyBytesObject, ptr %3, i32 0, i32 2
  %5 = getelementptr inbounds [1 x i8], ptr %4, i64 0, i64 0
  ret ptr %5
}

; Function Attrs: nounwind uwtable
define internal ptr @encode(ptr noundef %0) #0 {
  %2 = alloca ptr, align 8
  store ptr %0, ptr %2, align 8, !tbaa !19
  %3 = load ptr, ptr %2, align 8, !tbaa !19
  %4 = call ptr @PyUnicode_EncodeLocale(ptr noundef %3, ptr noundef @.str.34)
  ret ptr %4
}

; Function Attrs: nounwind uwtable
define internal ptr @decode(ptr noundef %0) #0 {
  %2 = alloca ptr, align 8
  store ptr %0, ptr %2, align 8, !tbaa !3
  %3 = load ptr, ptr %2, align 8, !tbaa !3
  %4 = call ptr @PyUnicode_DecodeLocale(ptr noundef %3, ptr noundef @.str.34)
  ret ptr %4
}

; Function Attrs: inlinehint nounwind uwtable
define internal ptr @get_hook_module_state() #5 {
  %1 = alloca ptr, align 8
  %2 = alloca ptr, align 8
  %3 = alloca i32, align 4
  %4 = alloca ptr, align 8
  call void @llvm.lifetime.start.p0(i64 8, ptr %2) #10
  %5 = call ptr @PyState_FindModule(ptr noundef @readlinemodule)
  store ptr %5, ptr %2, align 8, !tbaa !19
  %6 = load ptr, ptr %2, align 8, !tbaa !19
  %7 = icmp eq ptr %6, null
  br i1 %7, label %8, label %9

8:                                                ; preds = %0
  call void @PyErr_Clear()
  store ptr null, ptr %1, align 8
  store i32 1, ptr %3, align 4
  br label %15

9:                                                ; preds = %0
  %10 = load ptr, ptr %2, align 8, !tbaa !19
  call void @Py_INCREF(ptr noundef %10)
  call void @llvm.lifetime.start.p0(i64 8, ptr %4) #10
  %11 = load ptr, ptr %2, align 8, !tbaa !19
  %12 = call ptr @get_readline_state(ptr noundef %11)
  store ptr %12, ptr %4, align 8, !tbaa !20
  %13 = load ptr, ptr %2, align 8, !tbaa !19
  call void @Py_DECREF(ptr noundef %13)
  %14 = load ptr, ptr %4, align 8, !tbaa !20
  store ptr %14, ptr %1, align 8
  store i32 1, ptr %3, align 4
  call void @llvm.lifetime.end.p0(i64 8, ptr %4) #10
  br label %15

15:                                               ; preds = %9, %8
  call void @llvm.lifetime.end.p0(i64 8, ptr %2) #10
  %16 = load ptr, ptr %1, align 8
  ret ptr %16
}

; Function Attrs: nounwind uwtable
define internal ptr @on_completion(ptr noundef %0, i32 noundef %1) #0 {
  %3 = alloca ptr, align 8
  %4 = alloca ptr, align 8
  %5 = alloca i32, align 4
  %6 = alloca ptr, align 8
  %7 = alloca i32, align 4
  %8 = alloca ptr, align 8
  %9 = alloca i32, align 4
  %10 = alloca ptr, align 8
  %11 = alloca ptr, align 8
  %12 = alloca ptr, align 8
  store ptr %0, ptr %4, align 8, !tbaa !3
  store i32 %1, ptr %5, align 4, !tbaa !8
  call void @llvm.lifetime.start.p0(i64 8, ptr %6) #10
  store ptr null, ptr %6, align 8, !tbaa !3
  call void @llvm.lifetime.start.p0(i64 4, ptr %7) #10
  %13 = call i32 @PyGILState_Ensure()
  store i32 %13, ptr %7, align 4, !tbaa !8
  call void @llvm.lifetime.start.p0(i64 8, ptr %8) #10
  %14 = call ptr @get_hook_module_state()
  store ptr %14, ptr %8, align 8, !tbaa !20
  %15 = load ptr, ptr %8, align 8, !tbaa !20
  %16 = icmp eq ptr %15, null
  br i1 %16, label %17, label %19

17:                                               ; preds = %2
  %18 = load i32, ptr %7, align 4, !tbaa !8
  call void @PyGILState_Release(i32 noundef %18)
  store ptr null, ptr %3, align 8
  store i32 1, ptr %9, align 4
  br label %65

19:                                               ; preds = %2
  %20 = load ptr, ptr %8, align 8, !tbaa !20
  %21 = getelementptr inbounds nuw %struct.readlinestate, ptr %20, i32 0, i32 3
  %22 = load ptr, ptr %21, align 8, !tbaa !35
  %23 = icmp ne ptr %22, null
  br i1 %23, label %24, label %62

24:                                               ; preds = %19
  call void @llvm.lifetime.start.p0(i64 8, ptr %10) #10
  store ptr null, ptr %10, align 8, !tbaa !19
  call void @llvm.lifetime.start.p0(i64 8, ptr %11) #10
  store i32 1, ptr @rl_attempted_completion_over, align 4, !tbaa !8
  %25 = load ptr, ptr %4, align 8, !tbaa !3
  %26 = call ptr @decode(ptr noundef %25)
  store ptr %26, ptr %11, align 8, !tbaa !19
  %27 = load ptr, ptr %8, align 8, !tbaa !20
  %28 = getelementptr inbounds nuw %struct.readlinestate, ptr %27, i32 0, i32 3
  %29 = load ptr, ptr %28, align 8, !tbaa !35
  %30 = load ptr, ptr %11, align 8, !tbaa !19
  %31 = load i32, ptr %5, align 4, !tbaa !8
  %32 = call ptr (ptr, ptr, ...) @PyObject_CallFunction(ptr noundef %29, ptr noundef @.str.56, ptr noundef %30, i32 noundef %31)
  store ptr %32, ptr %10, align 8, !tbaa !19
  %33 = load ptr, ptr %10, align 8, !tbaa !19
  %34 = icmp eq ptr %33, null
  br i1 %34, label %35, label %36

35:                                               ; preds = %24
  br label %56

36:                                               ; preds = %24
  %37 = load ptr, ptr %10, align 8, !tbaa !19
  %38 = icmp eq ptr %37, @_Py_NoneStruct
  br i1 %38, label %39, label %40

39:                                               ; preds = %36
  store ptr null, ptr %6, align 8, !tbaa !3
  br label %54

40:                                               ; preds = %36
  call void @llvm.lifetime.start.p0(i64 8, ptr %12) #10
  %41 = load ptr, ptr %10, align 8, !tbaa !19
  %42 = call ptr @encode(ptr noundef %41)
  store ptr %42, ptr %12, align 8, !tbaa !19
  %43 = load ptr, ptr %12, align 8, !tbaa !19
  %44 = icmp eq ptr %43, null
  br i1 %44, label %45, label %46

45:                                               ; preds = %40
  store i32 2, ptr %9, align 4
  br label %51

46:                                               ; preds = %40
  %47 = load ptr, ptr %12, align 8, !tbaa !19
  %48 = call ptr @PyBytes_AS_STRING(ptr noundef %47)
  %49 = call noalias ptr @strdup(ptr noundef %48) #10
  store ptr %49, ptr %6, align 8, !tbaa !3
  %50 = load ptr, ptr %12, align 8, !tbaa !19
  call void @Py_DECREF(ptr noundef %50)
  store i32 0, ptr %9, align 4
  br label %51

51:                                               ; preds = %45, %46
  call void @llvm.lifetime.end.p0(i64 8, ptr %12) #10
  %52 = load i32, ptr %9, align 4
  switch i32 %52, label %61 [
    i32 0, label %53
    i32 2, label %56
  ]

53:                                               ; preds = %51
  br label %54

54:                                               ; preds = %53, %39
  %55 = load ptr, ptr %10, align 8, !tbaa !19
  call void @Py_DECREF(ptr noundef %55)
  br label %58

56:                                               ; preds = %51, %35
  call void @PyErr_Clear()
  %57 = load ptr, ptr %10, align 8, !tbaa !19
  call void @Py_XDECREF(ptr noundef %57)
  br label %58

58:                                               ; preds = %56, %54
  %59 = load i32, ptr %7, align 4, !tbaa !8
  call void @PyGILState_Release(i32 noundef %59)
  %60 = load ptr, ptr %6, align 8, !tbaa !3
  store ptr %60, ptr %3, align 8
  store i32 1, ptr %9, align 4
  br label %61

61:                                               ; preds = %58, %51
  call void @llvm.lifetime.end.p0(i64 8, ptr %11) #10
  call void @llvm.lifetime.end.p0(i64 8, ptr %10) #10
  br label %65

62:                                               ; preds = %19
  %63 = load i32, ptr %7, align 4, !tbaa !8
  call void @PyGILState_Release(i32 noundef %63)
  %64 = load ptr, ptr %6, align 8, !tbaa !3
  store ptr %64, ptr %3, align 8
  store i32 1, ptr %9, align 4
  br label %65

65:                                               ; preds = %62, %61, %17
  call void @llvm.lifetime.end.p0(i64 8, ptr %8) #10
  call void @llvm.lifetime.end.p0(i64 4, ptr %7) #10
  call void @llvm.lifetime.end.p0(i64 8, ptr %6) #10
  %66 = load ptr, ptr %3, align 8
  ret ptr %66
}