; Function Attrs: nounwind uwtable
define internal noalias ptr @on_completion(ptr noundef %0, i32 noundef %1) #0 {
  %3 = tail call i32 @PyGILState_Ensure() #14
  %4 = tail call ptr @PyState_FindModule(ptr noundef nonnull @readlinemodule) #14
  %5 = icmp eq ptr %4, null
  br i1 %5, label %get_hook_module_state.exit.thread, label %6

get_hook_module_state.exit.thread:                ; preds = %2
  tail call void @PyErr_Clear() #14
  br label %Py_DECREF.exit31

6:                                                ; preds = %2
  %7 = load i32, ptr %4, align 8, !tbaa !25
  %8 = icmp slt i32 %7, 0
  br i1 %8, label %Py_INCREF.exit.i, label %9

9:                                                ; preds = %6
  %10 = add nuw i32 %7, 1
  store i32 %10, ptr %4, align 8, !tbaa !25
  br label %Py_INCREF.exit.i

Py_INCREF.exit.i:                                 ; preds = %9, %6
  %11 = tail call ptr @PyModule_GetState(ptr noundef nonnull %4) #14
  %12 = load i32, ptr %4, align 8, !tbaa !25
  %.not.i.i = icmp sgt i32 %12, -1
  br i1 %.not.i.i, label %13, label %get_hook_module_state.exit

13:                                               ; preds = %Py_INCREF.exit.i
  %14 = add nsw i32 %12, -1
  store i32 %14, ptr %4, align 8, !tbaa !25
  %15 = icmp eq i32 %14, 0
  br i1 %15, label %16, label %get_hook_module_state.exit

16:                                               ; preds = %13
  tail call void @_Py_Dealloc(ptr noundef nonnull %4) #14
  br label %get_hook_module_state.exit

get_hook_module_state.exit:                       ; preds = %Py_INCREF.exit.i, %13, %16
  %17 = icmp eq ptr %11, null
  br i1 %17, label %Py_DECREF.exit31, label %18

18:                                               ; preds = %get_hook_module_state.exit
  %19 = getelementptr inbounds nuw i8, ptr %11, i64 24
  %20 = load ptr, ptr %19, align 8, !tbaa !40
  %.not = icmp eq ptr %20, null
  br i1 %.not, label %Py_DECREF.exit31, label %21

21:                                               ; preds = %18
  store i32 1, ptr @rl_attempted_completion_over, align 4, !tbaa !17
  %22 = tail call ptr @PyUnicode_DecodeLocale(ptr noundef %0, ptr noundef nonnull @.str.34) #14
  %23 = load ptr, ptr %19, align 8, !tbaa !40
  %24 = tail call ptr (ptr, ptr, ...) @PyObject_CallFunction(ptr noundef %23, ptr noundef nonnull @.str.56, ptr noundef %22, i32 noundef %1) #14
  %25 = icmp eq ptr %24, null
  br i1 %25, label %.split25, label %26

.split25:                                         ; preds = %21
  tail call void @PyErr_Clear() #14
  br label %Py_DECREF.exit31

26:                                               ; preds = %21
  %27 = icmp eq ptr %24, @_Py_NoneStruct
  br i1 %27, label %.split, label %33

.split:                                           ; preds = %26
  %28 = load i32, ptr @_Py_NoneStruct, align 8, !tbaa !25
  %.not.i30 = icmp sgt i32 %28, -1
  br i1 %.not.i30, label %29, label %Py_DECREF.exit31

29:                                               ; preds = %.split
  %30 = add nsw i32 %28, -1
  store i32 %30, ptr @_Py_NoneStruct, align 8, !tbaa !25
  %31 = icmp eq i32 %30, 0
  br i1 %31, label %32, label %Py_DECREF.exit31

32:                                               ; preds = %29
  tail call void @_Py_Dealloc(ptr noundef nonnull @_Py_NoneStruct) #14
  br label %Py_DECREF.exit31

33:                                               ; preds = %26
  %34 = tail call ptr @PyUnicode_EncodeLocale(ptr noundef nonnull %24, ptr noundef nonnull @.str.34) #14
  %35 = icmp eq ptr %34, null
  br i1 %35, label %44, label %36

36:                                               ; preds = %33
  %37 = getelementptr inbounds nuw i8, ptr %34, i64 32
  %38 = tail call noalias ptr @strdup(ptr noundef nonnull %37) #14
  %39 = load i32, ptr %34, align 8, !tbaa !25
  %.not.i32 = icmp sgt i32 %39, -1
  br i1 %.not.i32, label %40, label %.split23

40:                                               ; preds = %36
  %41 = add nsw i32 %39, -1
  store i32 %41, ptr %34, align 8, !tbaa !25
  %42 = icmp eq i32 %41, 0
  br i1 %42, label %43, label %.split23

43:                                               ; preds = %40
  tail call void @_Py_Dealloc(ptr noundef nonnull %34) #14
  br label %.split23

44:                                               ; preds = %33
  tail call void @PyErr_Clear() #14
  %45 = load i32, ptr %24, align 8, !tbaa !25
  %.not.i.i37 = icmp sgt i32 %45, -1
  br i1 %.not.i.i37, label %46, label %Py_DECREF.exit31

46:                                               ; preds = %44
  %47 = add nsw i32 %45, -1
  store i32 %47, ptr %24, align 8, !tbaa !25
  %48 = icmp eq i32 %47, 0
  br i1 %48, label %49, label %Py_DECREF.exit31

49:                                               ; preds = %46
  tail call void @_Py_Dealloc(ptr noundef nonnull %24) #14
  br label %Py_DECREF.exit31

.split23:                                         ; preds = %36, %40, %43
  %50 = load i32, ptr %24, align 8, !tbaa !25
  %.not.i = icmp sgt i32 %50, -1
  br i1 %.not.i, label %51, label %Py_DECREF.exit31

51:                                               ; preds = %.split23
  %52 = add nsw i32 %50, -1
  store i32 %52, ptr %24, align 8, !tbaa !25
  %53 = icmp eq i32 %52, 0
  br i1 %53, label %54, label %Py_DECREF.exit31

54:                                               ; preds = %51
  tail call void @_Py_Dealloc(ptr noundef nonnull %24) #14
  br label %Py_DECREF.exit31

Py_DECREF.exit31:                                 ; preds = %18, %.split25, %.split, %29, %32, %44, %46, %49, %.split23, %51, %54, %get_hook_module_state.exit, %get_hook_module_state.exit.thread
  %.0 = phi ptr [ null, %get_hook_module_state.exit.thread ], [ null, %get_hook_module_state.exit ], [ null, %.split25 ], [ null, %.split ], [ null, %29 ], [ null, %32 ], [ null, %44 ], [ null, %46 ], [ null, %49 ], [ %38, %.split23 ], [ %38, %51 ], [ %38, %54 ], [ null, %18 ]
  tail call void @PyGILState_Release(i32 noundef %3) #14
  ret ptr %.0
}